Certificate:
    Data:
        Version: 3 (0x2)
        Serial Number: 1 (0x1)
        Signature Algorithm: sha256WithRSAEncryption
        Issuer: O=SmartTerminal, CN=SmartTerminal Development CA Development
        Validity
            Not Before: Jan  1 00:00:00 1970 GMT
            Not After : Dec 31 23:59:59 9999 GMT
        Subject: O=SmartTerminal, CN=SmartTerminal Development CA Development
        Subject Public Key Info:
            Public Key Algorithm: rsaEncryption
                RSA Public-Key: (4096 bit)
                Modulus:
                    00:d4:1b:3a:46:81:e6:d7:bc:72:28:ce:f1:47:31:
                    91:c5:c6:f4:0b:ae:a0:c3:53:ba:67:d2:6c:74:38:
                    ec:55:69:a3:21:56:c6:88:9a:a4:1c:83:e8:88:97:
                    3e:1f:8b:5b:0a:e2:ce:9d:1d:a2:34:e4:cb:d3:79:
                    d4:b5:0f:30:b7:d8:c4:60:2b:93:2e:13:70:a8:a7:
                    7c:44:75:b4:34:68:35:46:7f:f7:e8:3c:67:04:5d:
                    22:48:00:55:23:ea:85:54:5a:42:3e:5b:70:76:27:
                    27:cc:1d:ed:4e:52:c4:f5:c7:ee:a2:1e:f4:9c:bc:
                    fc:09:43:93:c5:3a:22:4e:92:f5:90:c3:0c:7c:3f:
                    b6:d5:a4:4b:9f:36:70:85:5c:62:3f:e9:b1:d6:10:
                    89:46:7b:d6:c0:ee:89:0a:2f:95:cd:5f:ba:40:f4:
                    bf:d2:06:8a:21:97:11:a0:01:e7:f8:0e:24:a7:1e:
                    ce:5d:f9:0b:dd:1b:d1:39:b6:f3:7e:7c:7f:4e:d6:
                    7c:ab:ab:a7:5f:68:c6:81:6c:9a:9b:d3:6b:06:7e:
                    98:61:f0:13:61:83:c4:45:9d:07:f8:bb:bb:18:b9:
                    b9:d1:99:d8:12:b2:cc:71:7b:6e:46:40:be:c1:6c:
                    da:22:a7:a7:d2:79:fb:e5:0c:2b:84:43:0d:e5:55:
                    1a:91:15:a2:fb:bf:77:62:20:16:a5:2a:6c:70:eb:
                    a9:62:99:f8:98:5f:7d:7e:69:d9:52:76:a2:32:52:
                    2b:81:b4:74:74:27:fe:78:fd:ca:15:42:91:26:11:
                    e3:64:b8:bd:11:5f:f7:f0:ca:33:92:af:b0:31:62:
                    29:b2:21:66:63:f8:da:13:9d:89:97:ae:39:d2:d5:
                    4c:f3:ef:38:51:55:26:5b:f6:2a:e1:ec:67:e6:0d:
                    d6:97:c0:ef:da:7e:a3:49:ae:48:10:e2:52:ea:52:
                    22:08:04:46:99:f0:32:7f:49:1f:2d:b3:da:95:ad:
                    f2:a2:46:a0:68:bb:7f:c1:d1:ad:4b:bb:67:01:e8:
                    48:90:af:21:f5:03:2c:b1:fe:a9:a1:74:a9:90:9a:
                    6e:71:11:fa:9c:16:e8:81:e9:8c:b9:d2:31:ea:9f:
                    f3:9b:f5:06:02:2d:44:8b:a3:e8:b1:d0:91:d3:29:
                    60:55:20:45:d2:9f:6c:54:1f:30:b8:4f:37:bb:36:
                    52:2d:2c:d6:8d:d4:df:16:34:e5:6a:f8:ee:6b:32:
                    fe:33:2c:df:42:7f:f2:90:02:38:c5:bc:a7:50:81:
                    98:20:eb:a9:d9:55:e3:8c:86:3d:a9:65:b5:30:fd:
                    7a:59:ba:58:3e:6a:3a:83:35:cb:c1:2c:64:ef:de:
                    5f:16:d7
                Exponent: 65537 (0x10001)
        X509v3 extensions:
            X509v3 Subject Key Identifier: 
                3C:63:2F:56:33:C8:FB:80:54:30:B7:49:4E:A7:66:82:D9:60:A0:E0
            X509v3 Authority Key Identifier: 
                keyid:3C:63:2F:56:33:C8:FB:80:54:30:B7:49:4E:A7:66:82:D9:60:A0:E0
                DirName:/O=SmartTerminal/CN=SmartTerminal Development CA Development
                serial:01

            X509v3 Basic Constraints: 
                CA:TRUE
    Signature Algorithm: sha256WithRSAEncryption
         40:96:10:17:a8:55:bc:b6:0e:d4:2a:b7:0f:55:0e:3b:ba:db:
         82:30:29:d3:5a:07:ef:22:e1:4d:c0:43:d4:da:23:af:2d:f9:
         97:65:c4:3b:6d:a2:fc:c9:da:b7:14:86:9e:c3:48:87:6e:7c:
         3e:34:5b:1e:34:e1:f2:d0:d1:fb:e4:7c:c7:42:40:99:57:ad:
         0c:f5:e1:87:af:65:c7:b0:09:38:a2:4b:f1:85:8d:c9:5a:49:
         a0:bf:4d:8e:e3:fc:d4:f0:cc:45:b2:03:bc:c8:ef:77:ab:a8:
         81:24:6d:dd:ed:ca:5a:b1:88:31:66:7f:27:30:75:09:fb:d5:
         d2:ba:a2:1a:78:e5:42:aa:f2:5f:1f:df:cb:95:a8:ee:b8:3c:
         ae:02:d5:94:2c:c5:5c:f4:62:c2:8c:0c:06:55:30:a3:52:2f:
         b9:66:dd:90:a4:d9:5b:31:ac:32:59:24:5d:0b:c6:6f:55:ad:
         d1:39:b7:57:ec:e4:49:94:b8:7a:99:ca:09:7d:c3:ec:71:7f:
         ac:34:de:a6:9c:eb:9a:a8:df:61:46:fc:5e:f4:b4:4c:df:00:
         e5:7d:a0:f7:c7:d3:d1:85:2a:10:dd:46:95:9f:c9:75:0b:5e:
         1e:46:0f:cd:75:fa:ae:98:b5:e7:18:dd:0a:1c:57:c2:23:11:
         3c:3c:1a:08:f4:b0:7e:b7:21:df:81:cb:8f:70:51:6a:b8:97:
         0d:01:35:37:63:0e:67:e8:33:bf:91:0d:46:a1:b4:1d:e5:e9:
         05:6d:04:d6:17:32:16:d3:df:1a:8f:e3:15:a4:64:df:25:78:
         1e:4e:57:4d:1d:97:31:7a:ba:5d:5c:ff:f1:41:3d:c6:11:6e:
         1e:66:97:74:8c:d9:0e:c5:b0:b4:48:93:8a:3b:6b:00:63:20:
         86:c1:dc:a4:2e:19:cd:0c:14:2c:17:c9:97:81:fd:1c:06:b8:
         7d:b5:d7:5b:29:2e:c4:f1:e3:de:b5:e5:27:d3:2c:ed:51:d0:
         9e:2e:91:3e:30:cf:8c:d5:39:34:0a:24:c8:34:da:40:97:b5:
         dd:59:1c:2b:1a:1c:09:c0:5f:fe:df:ef:05:84:7c:56:8b:2b:
         94:9f:a1:7e:0c:7d:5c:ea:57:f5:42:26:8b:63:47:eb:70:7d:
         1c:d0:5b:6d:58:71:3c:0a:9f:a2:6b:ea:e4:ba:23:91:96:d8:
         8c:29:dd:69:32:20:e8:53:51:b3:3f:88:a3:ff:25:44:0c:80:
         b1:65:cb:ac:e6:a7:f4:1c:b0:82:f3:08:ec:1d:b5:89:e8:e4:
         0f:9c:a7:48:c2:f7:aa:5d:9c:cc:5e:f4:23:17:c3:b5:56:27:
         39:64:70:42:ef:a7:97:35
-----BEGIN CERTIFICATE-----
MIIFuTCCA6GgAwIBAgIBATANBgkqhkiG9w0BAQsFADBLMRYwFAYDVQQKDA1TbWFy
dFRlcm1pbmFsMTEwLwYDVQQDDChTbWFydFRlcm1pbmFsIERldmVsb3BtZW50IENB
IERldmVsb3BtZW50MCAXDTcwMDEwMTAwMDAwMFoYDzk5OTkxMjMxMjM1OTU5WjBL
MRYwFAYDVQQKDA1TbWFydFRlcm1pbmFsMTEwLwYDVQQDDChTbWFydFRlcm1pbmFs
IERldmVsb3BtZW50IENBIERldmVsb3BtZW50MIICIjANBgkqhkiG9w0BAQEFAAOC
Ag8AMIICCgKCAgEA1Bs6RoHm17xyKM7xRzGRxcb0C66gw1O6Z9JsdDjsVWmjIVbG
iJqkHIPoiJc+H4tbCuLOnR2iNOTL03nUtQ8wt9jEYCuTLhNwqKd8RHW0NGg1Rn/3
6DxnBF0iSABVI+qFVFpCPltwdicnzB3tTlLE9cfuoh70nLz8CUOTxToiTpL1kMMM
fD+21aRLnzZwhVxiP+mx1hCJRnvWwO6JCi+VzV+6QPS/0gaKIZcRoAHn+A4kpx7O
XfkL3RvRObbzfnx/TtZ8q6unX2jGgWyam9NrBn6YYfATYYPERZ0H+Lu7GLm50ZnY
ErLMcXtuRkC+wWzaIqen0nn75QwrhEMN5VUakRWi+793YiAWpSpscOupYpn4mF99
fmnZUnaiMlIrgbR0dCf+eP3KFUKRJhHjZLi9EV/38Mozkq+wMWIpsiFmY/jaE52J
l6450tVM8+84UVUmW/Yq4exn5g3Wl8Dv2n6jSa5IEOJS6lIiCARGmfAyf0kfLbPa
la3yokagaLt/wdGtS7tnAehIkK8h9QMssf6poXSpkJpucRH6nBbogemMudIx6p/z
m/UGAi1Ei6PosdCR0ylgVSBF0p9sVB8wuE83uzZSLSzWjdTfFjTlavjuazL+Myzf
Qn/ykAI4xbynUIGYIOup2VXjjIY9qWW1MP16WbpYPmo6gzXLwSxk795fFtcCAwEA
AaOBpTCBojAdBgNVHQ4EFgQUPGMvVjPI+4BUMLdJTqdmgtlgoOAwcwYDVR0jBGww
aoAUPGMvVjPI+4BUMLdJTqdmgtlgoOChT6RNMEsxFjAUBgNVBAoMDVNtYXJ0VGVy
bWluYWwxMTAvBgNVBAMMKFNtYXJ0VGVybWluYWwgRGV2ZWxvcG1lbnQgQ0EgRGV2
ZWxvcG1lbnSCAQEwDAYDVR0TBAUwAwEB/zANBgkqhkiG9w0BAQsFAAOCAgEAQJYQ
F6hVvLYO1Cq3D1UOO7rbgjAp01oH7yLhTcBD1Nojry35l2XEO22i/MnatxSGnsNI
h258PjRbHjTh8tDR++R8x0JAmVetDPXhh69lx7AJOKJL8YWNyVpJoL9NjuP81PDM
RbIDvMjvd6uogSRt3e3KWrGIMWZ/JzB1CfvV0rqiGnjlQqryXx/fy5Wo7rg8rgLV
lCzFXPRiwowMBlUwo1IvuWbdkKTZWzGsMlkkXQvGb1Wt0Tm3V+zkSZS4epnKCX3D
7HF/rDTeppzrmqjfYUb8XvS0TN8A5X2g98fT0YUqEN1GlZ/JdQteHkYPzXX6rpi1
5xjdChxXwiMRPDwaCPSwfrch34HLj3BRariXDQE1N2MOZ+gzv5ENRqG0HeXpBW0E
1hcyFtPfGo/jFaRk3yV4Hk5XTR2XMXq6XVz/8UE9xhFuHmaXdIzZDsWwtEiTijtr
AGMghsHcpC4ZzQwULBfJl4H9HAa4fbXXWykuxPHj3rXlJ9Ms7VHQni6RPjDPjNU5
NAokyDTaQJe13VkcKxocCcBf/t/vBYR8VosrlJ+hfgx9XOpX9UImi2NH63B9HNBb
bVhxPAqfomvq5LojkZbYjCndaTIg6FNRsz+Io/8lRAyAsWXLrOan9BywgvMI7B21
iejkD5ynSML3ql2czF70IxfDtVYnOWRwQu+nlzU=
-----END CERTIFICATE-----
