Certificate:
    Data:
        Version: 3 (0x2)
        Serial Number: 2 (0x2)
        Signature Algorithm: sha256WithRSAEncryption
        Issuer: O=SmartTerminal, CN=SmartTerminal Development CA Development
        Validity
            Not Before: Jan  1 00:00:00 1970 GMT
            Not After : Dec 31 23:59:59 9999 GMT
        Subject: O=SmartTerminal, CN=SmartTerminal Development-1
        Subject Public Key Info:
            Public Key Algorithm: rsaEncryption
                RSA Public-Key: (4096 bit)
                Modulus:
                    00:d5:07:c1:39:4a:00:fb:dd:11:f0:a4:b5:24:a4:
                    f9:d0:78:e7:67:a9:82:88:ca:7c:16:0e:b3:06:16:
                    7c:75:d1:d1:1a:10:ff:35:7f:2b:50:75:38:8a:e5:
                    09:f0:66:ad:a7:3d:c5:7c:3e:7f:d4:c6:7b:e0:62:
                    18:e7:61:20:07:17:25:59:ac:d3:7d:36:2e:fe:ac:
                    29:80:47:0c:96:65:14:d8:d3:8b:ab:1f:a2:20:0a:
                    7b:ad:e7:f8:c4:13:c5:dc:ce:e7:8f:bc:20:37:8e:
                    ee:ee:1f:fc:f6:cb:dc:3d:a0:93:82:83:08:58:d3:
                    7c:23:e2:4f:00:2d:a6:86:4f:c1:77:05:86:14:05:
                    3c:e3:70:ce:6b:b8:5e:77:1b:ab:13:c5:01:32:05:
                    1f:6d:01:76:c3:f4:04:5f:2b:80:37:68:86:28:39:
                    d6:f4:03:f5:72:42:84:bc:2b:c2:a5:72:e8:e8:ce:
                    7c:e9:1f:19:b4:54:4c:c0:91:f5:f9:67:46:a1:6f:
                    fb:6c:2d:84:c9:fd:91:40:e6:c7:07:da:bb:34:af:
                    a0:32:30:4b:5a:b4:73:c5:fc:1a:d5:ca:66:ce:73:
                    4b:5b:45:d6:e6:22:61:b9:0e:78:d8:8a:c2:38:64:
                    a8:2d:6a:d8:7c:4d:ac:5c:84:52:a2:10:d9:e9:b4:
                    f7:ba:3c:b0:2d:b6:40:2f:76:9b:b1:2f:e9:74:31:
                    b5:22:9f:17:18:26:16:43:f4:c6:1c:34:19:31:35:
                    d6:cb:85:80:24:de:50:4e:7f:8a:dc:78:42:5b:b3:
                    53:a8:1d:9f:cc:1b:26:84:69:26:9c:38:bd:03:d7:
                    07:a3:34:49:13:d4:d6:ad:93:3e:77:85:dc:94:01:
                    2c:a2:ba:b6:2b:19:c4:d8:03:b1:0e:d2:4e:7d:04:
                    76:0e:a7:2d:fc:70:7d:88:60:20:00:a7:45:8f:1d:
                    35:fe:21:43:d5:93:0f:72:35:bf:45:ff:ed:0a:17:
                    d8:a6:6b:40:07:dc:df:3c:a6:ae:f1:9e:f3:7c:dc:
                    f3:8b:00:10:24:b2:d7:9a:cb:c0:4d:5e:25:bd:2c:
                    73:52:de:2f:91:57:0f:0e:88:a3:19:1a:c3:0b:02:
                    74:9f:60:2a:1e:9e:c2:b5:1f:56:b4:c0:81:a5:70:
                    96:35:91:9b:ba:4c:be:bb:f1:5f:13:2c:63:06:73:
                    d6:01:30:c5:43:61:d3:49:9f:b8:2a:6f:fc:22:eb:
                    d8:30:5c:1f:b9:b2:16:6e:c1:73:4c:fb:94:2a:72:
                    50:95:dd:25:dc:81:cd:13:16:f8:d6:bb:f9:87:eb:
                    33:c8:b8:c2:6c:c6:66:88:77:21:c4:df:7b:b8:36:
                    98:3b:7f
                Exponent: 65537 (0x10001)
        X509v3 extensions:
            X509v3 Subject Key Identifier: 
                84:3A:85:17:1F:37:F0:69:CA:2C:FA:E1:8C:71:72:D3:DB:D3:28:77
            X509v3 Authority Key Identifier: 
                keyid:3C:63:2F:56:33:C8:FB:80:54:30:B7:49:4E:A7:66:82:D9:60:A0:E0
                DirName:/O=SmartTerminal/CN=SmartTerminal Development CA Development
                serial:01

            X509v3 Basic Constraints: 
                CA:FALSE
    Signature Algorithm: sha256WithRSAEncryption
         30:8b:d1:38:40:98:de:c1:c4:89:aa:c5:3e:8f:44:e1:78:fa:
         9e:7f:85:69:89:64:86:44:79:88:e0:55:b5:d7:03:11:a8:82:
         01:e1:f9:50:21:8b:26:2d:15:ea:33:b9:ce:e5:06:90:8a:54:
         56:71:b7:b4:14:1a:2a:79:44:52:02:f8:b5:43:b4:bb:5c:c9:
         13:1d:43:a2:96:0d:2b:04:21:73:5d:5c:df:2e:1e:3f:aa:90:
         5a:c0:90:d6:a3:e6:e2:b7:e3:a8:b0:c3:1f:d2:f2:af:e6:35:
         b2:db:59:2d:f1:bb:14:93:18:94:3c:a1:fd:73:34:b1:53:f2:
         7e:aa:fc:3d:4f:78:7f:3e:e2:d0:59:1d:07:b1:b5:0f:86:70:
         c7:95:21:0e:ea:24:14:af:87:93:ed:29:c9:02:54:16:d9:52:
         0e:54:71:c4:91:c8:fa:1d:68:cb:a9:b2:6e:ab:9c:c5:b8:31:
         cb:47:2a:ac:7d:80:f1:35:ae:fa:76:34:38:29:7b:3a:83:64:
         a9:6f:48:69:c0:55:a3:5d:5a:33:3b:d7:75:2b:63:9f:6b:e4:
         73:47:a8:6f:0d:51:37:00:69:7f:09:14:ba:3c:b5:c6:6f:1e:
         4d:15:6b:9a:34:98:00:db:d2:84:bc:96:29:2c:20:34:4e:44:
         50:c6:10:aa:e9:e7:55:81:56:f0:47:3e:eb:3f:b9:6a:4b:23:
         b8:10:cb:7e:71:ac:29:ce:34:e1:ca:9b:a6:7e:1b:d8:8c:f3:
         96:74:0b:24:e5:be:09:0b:51:da:29:49:ad:5a:00:ae:a8:f2:
         2e:c6:7b:83:bb:4a:39:bc:0a:6f:fe:c4:05:e5:50:4d:4b:8f:
         1f:97:f2:27:e3:60:ab:84:6e:7f:e4:06:75:80:08:f6:6d:6f:
         bf:b3:8e:15:32:47:a4:a2:ba:53:3b:01:f8:95:b1:c6:d8:13:
         98:6f:27:4b:a5:b1:27:f5:b7:b3:cc:0e:10:e0:2a:f7:ef:c7:
         36:04:ea:b0:71:63:82:70:db:33:db:f3:84:bf:0f:e7:ae:d4:
         f3:96:25:1d:25:0b:4c:52:e3:f7:19:9e:fa:3c:c0:1e:6d:c0:
         6e:7e:d6:fe:0a:3d:57:38:e0:61:51:e1:37:2e:3c:05:be:2f:
         57:01:42:c6:74:ab:75:be:a0:22:62:55:d1:68:4b:4b:65:9a:
         1b:d9:ff:65:93:99:47:28:59:e9:eb:ef:2f:76:10:57:82:0a:
         50:9f:8c:9c:af:e5:de:d2:3e:8a:34:b2:d2:71:29:de:1a:59:
         a4:0f:94:03:1f:42:8c:95:25:78:4d:25:c8:47:67:d9:0c:dc:
         28:fb:f2:ef:a0:78:c6:ca
-----BEGIN CERTIFICATE-----
MIIFqTCCA5GgAwIBAgIBAjANBgkqhkiG9w0BAQsFADBLMRYwFAYDVQQKDA1TbWFy
dFRlcm1pbmFsMTEwLwYDVQQDDChTbWFydFRlcm1pbmFsIERldmVsb3BtZW50IENB
IERldmVsb3BtZW50MCAXDTcwMDEwMTAwMDAwMFoYDzk5OTkxMjMxMjM1OTU5WjA+
MRYwFAYDVQQKDA1TbWFydFRlcm1pbmFsMSQwIgYDVQQDDBtTbWFydFRlcm1pbmFs
IERldmVsb3BtZW50LTEwggIiMA0GCSqGSIb3DQEBAQUAA4ICDwAwggIKAoICAQDV
B8E5SgD73RHwpLUkpPnQeOdnqYKIynwWDrMGFnx10dEaEP81fytQdTiK5QnwZq2n
PcV8Pn/UxnvgYhjnYSAHFyVZrNN9Ni7+rCmARwyWZRTY04urH6IgCnut5/jEE8Xc
zuePvCA3ju7uH/z2y9w9oJOCgwhY03wj4k8ALaaGT8F3BYYUBTzjcM5ruF53G6sT
xQEyBR9tAXbD9ARfK4A3aIYoOdb0A/VyQoS8K8KlcujoznzpHxm0VEzAkfX5Z0ah
b/tsLYTJ/ZFA5scH2rs0r6AyMEtatHPF/BrVymbOc0tbRdbmImG5DnjYisI4ZKgt
ath8TaxchFKiENnptPe6PLAttkAvdpuxL+l0MbUinxcYJhZD9MYcNBkxNdbLhYAk
3lBOf4rceEJbs1OoHZ/MGyaEaSacOL0D1wejNEkT1Natkz53hdyUASyiurYrGcTY
A7EO0k59BHYOpy38cH2IYCAAp0WPHTX+IUPVkw9yNb9F/+0KF9ima0AH3N88pq7x
nvN83POLABAksteay8BNXiW9LHNS3i+RVw8OiKMZGsMLAnSfYCoensK1H1a0wIGl
cJY1kZu6TL678V8TLGMGc9YBMMVDYdNJn7gqb/wi69gwXB+5shZuwXNM+5QqclCV
3SXcgc0TFvjWu/mH6zPIuMJsxmaIdyHE33u4Npg7fwIDAQABo4GiMIGfMB0GA1Ud
DgQWBBSEOoUXHzfwacos+uGMcXLT29ModzBzBgNVHSMEbDBqgBQ8Yy9WM8j7gFQw
t0lOp2aC2WCg4KFPpE0wSzEWMBQGA1UECgwNU21hcnRUZXJtaW5hbDExMC8GA1UE
AwwoU21hcnRUZXJtaW5hbCBEZXZlbG9wbWVudCBDQSBEZXZlbG9wbWVudIIBATAJ
BgNVHRMEAjAAMA0GCSqGSIb3DQEBCwUAA4ICAQAwi9E4QJjewcSJqsU+j0ThePqe
f4VpiWSGRHmI4FW11wMRqIIB4flQIYsmLRXqM7nO5QaQilRWcbe0FBoqeURSAvi1
Q7S7XMkTHUOilg0rBCFzXVzfLh4/qpBawJDWo+bit+OosMMf0vKv5jWy21kt8bsU
kxiUPKH9czSxU/J+qvw9T3h/PuLQWR0HsbUPhnDHlSEO6iQUr4eT7SnJAlQW2VIO
VHHEkcj6HWjLqbJuq5zFuDHLRyqsfYDxNa76djQ4KXs6g2Spb0hpwFWjXVozO9d1
K2Ofa+RzR6hvDVE3AGl/CRS6PLXGbx5NFWuaNJgA29KEvJYpLCA0TkRQxhCq6edV
gVbwRz7rP7lqSyO4EMt+cawpzjThypumfhvYjPOWdAsk5b4JC1HaKUmtWgCuqPIu
xnuDu0o5vApv/sQF5VBNS48fl/In42CrhG5/5AZ1gAj2bW+/s44VMkekorpTOwH4
lbHG2BOYbydLpbEn9bezzA4Q4Cr378c2BOqwcWOCcNsz2/OEvw/nrtTzliUdJQtM
UuP3GZ76PMAebcBuftb+Cj1XOOBhUeE3LjwFvi9XAULGdKt1vqAiYlXRaEtLZZob
2f9lk5lHKFnp6+8vdhBXggpQn4ycr+Xe0j6KNLLScSneGlmkD5QDH0KMlSV4TSXI
R2fZDNwo+/LvoHjGyg==
-----END CERTIFICATE-----
